target datalayout = "e-m:e-p270:32:32-p271:32:32-p272:64:64-i64:64-i128:128-f80:128-n8:16:32:64-S128"
target triple = "x86_64-pc-linux-gnu"

%struct.PlaceHolderVar = type { %struct.Expr, ptr, ptr, ptr, i32, i32 }
%struct.Expr = type { i32 }
%struct.PlannerInfo = type { i32, ptr, ptr, i32, ptr, ptr, ptr, ptr, i32, ptr, ptr, ptr, ptr, ptr, ptr, ptr, ptr, i32, ptr, ptr, ptr, ptr, ptr, i8, ptr, ptr, ptr, ptr, ptr, i32, ptr, ptr, ptr, ptr, ptr, ptr, ptr, i32, ptr, ptr, ptr, i32, ptr, ptr, ptr, ptr, ptr, ptr, [8 x ptr], [8 x ptr], ptr, ptr, ptr, ptr, ptr, ptr, ptr, double, double, double, i32, i8, i8, i8, i8, i8, i8, i8, i32, ptr, ptr, i32, i8, i8, i32, ptr, ptr, ptr, ptr, ptr, ptr, i8, ptr }
%struct.PlaceHolderInfo = type { i32, i32, ptr, ptr, ptr, ptr, i32 }
%struct.ForEachState = type { ptr, i32 }
%struct.List = type { i32, i32, i32, ptr, [0 x %union.ListCell] }
%union.ListCell = type { ptr }

; Function Attrs: nounwind uwtable
define dso_local void @fix_placeholder_input_needed_levels(ptr noundef %0) #0 {
  %2 = alloca ptr, align 8
  %3 = alloca ptr, align 8
  %4 = alloca %struct.ForEachState, align 8
  %5 = alloca ptr, align 8
  %6 = alloca ptr, align 8
  store ptr %0, ptr %2, align 8
  call void @llvm.lifetime.start.p0(i64 8, ptr %3) #6
  call void @llvm.lifetime.start.p0(i64 16, ptr %4) #6
  %7 = getelementptr inbounds nuw %struct.ForEachState, ptr %4, i32 0, i32 0
  %8 = load ptr, ptr %2, align 8
  %9 = getelementptr inbounds nuw %struct.PlannerInfo, ptr %8, i32 0, i32 35
  %10 = load ptr, ptr %9, align 8
  store ptr %10, ptr %7, align 8
  %11 = getelementptr inbounds nuw %struct.ForEachState, ptr %4, i32 0, i32 1
  store i32 0, ptr %11, align 8
  %12 = getelementptr i8, ptr %4, i64 12
  call void @llvm.memset.p0.i64(ptr align 4 %12, i8 0, i64 4, i1 false)
  br label %13

13:                                               ; preds = %54, %1
  %14 = getelementptr inbounds nuw %struct.ForEachState, ptr %4, i32 0, i32 0
  %15 = load ptr, ptr %14, align 8
  %16 = icmp ne ptr %15, null
  br i1 %16, label %17, label %34

17:                                               ; preds = %13
  %18 = getelementptr inbounds nuw %struct.ForEachState, ptr %4, i32 0, i32 1
  %19 = load i32, ptr %18, align 8
  %20 = getelementptr inbounds nuw %struct.ForEachState, ptr %4, i32 0, i32 0
  %21 = load ptr, ptr %20, align 8
  %22 = getelementptr inbounds nuw %struct.List, ptr %21, i32 0, i32 1
  %23 = load i32, ptr %22, align 4
  %24 = icmp slt i32 %19, %23
  br i1 %24, label %25, label %34

25:                                               ; preds = %17
  %26 = getelementptr inbounds nuw %struct.ForEachState, ptr %4, i32 0, i32 0
  %27 = load ptr, ptr %26, align 8
  %28 = getelementptr inbounds nuw %struct.List, ptr %27, i32 0, i32 3
  %29 = load ptr, ptr %28, align 8
  %30 = getelementptr inbounds nuw %struct.ForEachState, ptr %4, i32 0, i32 1
  %31 = load i32, ptr %30, align 8
  %32 = sext i32 %31 to i64
  %33 = getelementptr inbounds %union.ListCell, ptr %29, i64 %32
  store ptr %33, ptr %3, align 8
  br label %35

34:                                               ; preds = %17, %13
  store ptr null, ptr %3, align 8
  br label %35

35:                                               ; preds = %34, %25
  %36 = phi i32 [ 1, %25 ], [ 0, %34 ]
  %37 = icmp ne i32 %36, 0
  br i1 %37, label %39, label %38

38:                                               ; preds = %35
  call void @llvm.lifetime.end.p0(i64 16, ptr %4) #6
  br label %58

39:                                               ; preds = %35
  call void @llvm.lifetime.start.p0(i64 8, ptr %5) #6
  %40 = load ptr, ptr %3, align 8
  %41 = load ptr, ptr %40, align 8
  store ptr %41, ptr %5, align 8
  call void @llvm.lifetime.start.p0(i64 8, ptr %6) #6
  %42 = load ptr, ptr %5, align 8
  %43 = getelementptr inbounds nuw %struct.PlaceHolderInfo, ptr %42, i32 0, i32 2
  %44 = load ptr, ptr %43, align 8
  %45 = getelementptr inbounds nuw %struct.PlaceHolderVar, ptr %44, i32 0, i32 1
  %46 = load ptr, ptr %45, align 8
  %47 = call ptr @pull_var_clause(ptr noundef %46, i32 noundef 26)
  store ptr %47, ptr %6, align 8
  %48 = load ptr, ptr %2, align 8
  %49 = load ptr, ptr %6, align 8
  %50 = load ptr, ptr %5, align 8
  %51 = getelementptr inbounds nuw %struct.PlaceHolderInfo, ptr %50, i32 0, i32 3
  %52 = load ptr, ptr %51, align 8
  call void @add_vars_to_targetlist(ptr noundef %48, ptr noundef %49, ptr noundef %52)
  %53 = load ptr, ptr %6, align 8
  call void @list_free(ptr noundef %53)
  call void @llvm.lifetime.end.p0(i64 8, ptr %6) #6
  call void @llvm.lifetime.end.p0(i64 8, ptr %5) #6
  br label %54

54:                                               ; preds = %39
  %55 = getelementptr inbounds nuw %struct.ForEachState, ptr %4, i32 0, i32 1
  %56 = load i32, ptr %55, align 8
  %57 = add i32 %56, 1
  store i32 %57, ptr %55, align 8
  br label %13, !llvm.loop !10

58:                                               ; preds = %38
  call void @llvm.lifetime.end.p0(i64 8, ptr %3) #6
  ret void
}